target datalayout = "e-m:e-p270:32:32-p271:32:32-p272:64:64-i64:64-i128:128-f80:128-n8:16:32:64-S128"
target triple = "x86_64-pc-linux-gnu"

%struct._lv_event_t = type { ptr, ptr, i32, ptr, ptr, ptr, i8 }
%struct._lv_cover_check_info_t = type { i32, ptr }

; Function Attrs: nounwind uwtable
define void @lv_event_set_cover_res(ptr noundef %0, i32 noundef %1) #0 {
  %3 = alloca ptr, align 8
  %4 = alloca i32, align 4
  %5 = alloca ptr, align 8
  store ptr %0, ptr %3, align 8, !tbaa !3
  store i32 %1, ptr %4, align 4, !tbaa !7
  %6 = load ptr, ptr %3, align 8, !tbaa !3
  %7 = getelementptr inbounds nuw %struct._lv_event_t, ptr %6, i32 0, i32 2
  %8 = load i32, ptr %7, align 8, !tbaa !12
  %9 = icmp eq i32 %8, 26
  br i1 %9, label %10, label %23

10:                                               ; preds = %2
  call void @llvm.lifetime.start.p0(i64 8, ptr %5) #3
  %11 = load ptr, ptr %3, align 8, !tbaa !3
  %12 = call ptr @lv_event_get_param(ptr noundef %11)
  store ptr %12, ptr %5, align 8, !tbaa !3
  %13 = load i32, ptr %4, align 4, !tbaa !7
  %14 = load ptr, ptr %5, align 8, !tbaa !3
  %15 = getelementptr inbounds nuw %struct._lv_cover_check_info_t, ptr %14, i32 0, i32 0
  %16 = load i32, ptr %15, align 8, !tbaa !32
  %17 = icmp ugt i32 %13, %16
  br i1 %17, label %18, label %22

18:                                               ; preds = %10
  %19 = load i32, ptr %4, align 4, !tbaa !7
  %20 = load ptr, ptr %5, align 8, !tbaa !3
  %21 = getelementptr inbounds nuw %struct._lv_cover_check_info_t, ptr %20, i32 0, i32 0
  store i32 %19, ptr %21, align 8, !tbaa !32
  br label %22

22:                                               ; preds = %18, %10
  call void @llvm.lifetime.end.p0(i64 8, ptr %5) #3
  br label %26

23:                                               ; preds = %2
  br label %24

24:                                               ; preds = %23
  br label %25

25:                                               ; preds = %24
  br label %26

26:                                               ; preds = %25, %22
  ret void
}