; Function Attrs: nounwind uwtable
define void @lv_event_set_cover_res(ptr noundef %0, i32 noundef %1) local_unnamed_addr #0 {
  %3 = getelementptr inbounds nuw i8, ptr %0, i64 16
  %4 = load i32, ptr %3, align 8, !tbaa !10
  %5 = icmp eq i32 %4, 26
  br i1 %5, label %6, label %11

6:                                                ; preds = %2
  %7 = tail call ptr @lv_event_get_param(ptr noundef nonnull %0) #4
  %8 = load i32, ptr %7, align 8, !tbaa !31
  %9 = icmp ugt i32 %1, %8
  br i1 %9, label %10, label %11

10:                                               ; preds = %6
  store i32 %1, ptr %7, align 8, !tbaa !31
  br label %11

11:                                               ; preds = %6, %10, %2
  ret void
}